target datalayout = "e-m:e-p270:32:32-p271:32:32-p272:64:64-i64:64-i128:128-f80:128-n8:16:32:64-S128"
target triple = "x86_64-pc-linux-gnu"

%struct.AVFormatContext = type { ptr, ptr, ptr, ptr, ptr, i32, i32, ptr, i32, ptr, i32, ptr, ptr, i64, i64, i64, i32, i32, i32, i64, i64, ptr, i32, i32, ptr, i32, i32, i32, i32, ptr, i64, i32, i32, %struct.AVIOInterruptCB, i32, i32, i32, i32, i64, i32, i32, i32, i32, i32, i32, i32, i32, i32, i32, i32, i32, i64, i32, i32, i32, i32, i32, ptr, ptr, ptr, ptr, i32, ptr, ptr, ptr, ptr, i32, ptr, ptr, i64, ptr, ptr, ptr, i64 }
%struct.AVIOInterruptCB = type { ptr, ptr }
%struct.ASFContext = type { ptr, [128 x i32], [128 x %struct.ASFStream], [128 x i32], [128 x %struct.AVRational], [128 x [6 x i8]], i32, i64, i64, i64, i32, %struct.ASFMainHeader, i32, i32, i32, i32, i32, i32, i32, i32, i32, i32, i32, i64, i32, i32, i32, i64, i64, i32, ptr, i32, i32, i32 }
%struct.ASFStream = type { i32, i8, %struct.AVPacket, i32, i32, i32, i64, i32, i32, i32, i32, i32, i64, i16, i32, [256 x i32], i32, [8 x %struct.ASFPayload] }
%struct.AVPacket = type { ptr, i64, i64, ptr, i32, i32, i32, ptr, i32, i64, i64, ptr, ptr, %struct.AVRational }
%struct.AVRational = type { i32, i32 }
%struct.ASFPayload = type { i8, i16 }
%struct.ASFMainHeader = type { [16 x i8], i64, i64, i64, i64, i32, i32, i32, i32, i32, i32 }

; Function Attrs: nounwind uwtable
define internal void @asf_reset_header(ptr noundef %0) #0 {
  %2 = alloca ptr, align 8
  %3 = alloca ptr, align 8
  %4 = alloca ptr, align 8
  %5 = alloca i32, align 4
  store ptr %0, ptr %2, align 8, !tbaa !13
  call void @llvm.lifetime.start.p0(i64 8, ptr %3) #11
  %6 = load ptr, ptr %2, align 8, !tbaa !13
  %7 = getelementptr inbounds nuw %struct.AVFormatContext, ptr %6, i32 0, i32 3
  %8 = load ptr, ptr %7, align 8, !tbaa !15
  store ptr %8, ptr %3, align 8, !tbaa !30
  call void @llvm.lifetime.start.p0(i64 8, ptr %4) #11
  call void @llvm.lifetime.start.p0(i64 4, ptr %5) #11
  %9 = load ptr, ptr %3, align 8, !tbaa !30
  %10 = getelementptr inbounds nuw %struct.ASFContext, ptr %9, i32 0, i32 6
  store i32 0, ptr %10, align 8, !tbaa !61
  %11 = load ptr, ptr %3, align 8, !tbaa !30
  %12 = getelementptr inbounds nuw %struct.ASFContext, ptr %11, i32 0, i32 12
  store i32 0, ptr %12, align 8, !tbaa !190
  %13 = load ptr, ptr %3, align 8, !tbaa !30
  %14 = getelementptr inbounds nuw %struct.ASFContext, ptr %13, i32 0, i32 13
  store i32 0, ptr %14, align 4, !tbaa !191
  %15 = load ptr, ptr %3, align 8, !tbaa !30
  %16 = getelementptr inbounds nuw %struct.ASFContext, ptr %15, i32 0, i32 14
  store i32 0, ptr %16, align 8, !tbaa !192
  %17 = load ptr, ptr %3, align 8, !tbaa !30
  %18 = getelementptr inbounds nuw %struct.ASFContext, ptr %17, i32 0, i32 15
  store i32 0, ptr %18, align 4, !tbaa !193
  %19 = load ptr, ptr %3, align 8, !tbaa !30
  %20 = getelementptr inbounds nuw %struct.ASFContext, ptr %19, i32 0, i32 16
  store i32 0, ptr %20, align 8, !tbaa !79
  %21 = load ptr, ptr %3, align 8, !tbaa !30
  %22 = getelementptr inbounds nuw %struct.ASFContext, ptr %21, i32 0, i32 17
  store i32 0, ptr %22, align 4, !tbaa !164
  %23 = load ptr, ptr %3, align 8, !tbaa !30
  %24 = getelementptr inbounds nuw %struct.ASFContext, ptr %23, i32 0, i32 18
  store i32 0, ptr %24, align 8, !tbaa !157
  %25 = load ptr, ptr %3, align 8, !tbaa !30
  %26 = getelementptr inbounds nuw %struct.ASFContext, ptr %25, i32 0, i32 19
  store i32 0, ptr %26, align 4, !tbaa !151
  %27 = load ptr, ptr %3, align 8, !tbaa !30
  %28 = getelementptr inbounds nuw %struct.ASFContext, ptr %27, i32 0, i32 20
  store i32 0, ptr %28, align 8, !tbaa !147
  %29 = load ptr, ptr %3, align 8, !tbaa !30
  %30 = getelementptr inbounds nuw %struct.ASFContext, ptr %29, i32 0, i32 21
  store i32 0, ptr %30, align 4, !tbaa !155
  %31 = load ptr, ptr %3, align 8, !tbaa !30
  %32 = getelementptr inbounds nuw %struct.ASFContext, ptr %31, i32 0, i32 22
  store i32 0, ptr %32, align 8, !tbaa !153
  %33 = load ptr, ptr %3, align 8, !tbaa !30
  %34 = getelementptr inbounds nuw %struct.ASFContext, ptr %33, i32 0, i32 23
  store i64 0, ptr %34, align 8, !tbaa !158
  %35 = load ptr, ptr %3, align 8, !tbaa !30
  %36 = getelementptr inbounds nuw %struct.ASFContext, ptr %35, i32 0, i32 25
  store i32 0, ptr %36, align 4, !tbaa !161
  %37 = load ptr, ptr %3, align 8, !tbaa !30
  %38 = getelementptr inbounds nuw %struct.ASFContext, ptr %37, i32 0, i32 26
  store i32 0, ptr %38, align 8, !tbaa !159
  %39 = load ptr, ptr %3, align 8, !tbaa !30
  %40 = getelementptr inbounds nuw %struct.ASFContext, ptr %39, i32 0, i32 27
  store i64 0, ptr %40, align 8, !tbaa !80
  store i32 0, ptr %5, align 4, !tbaa !34
  br label %41

41:                                               ; preds = %58, %1
  %42 = load i32, ptr %5, align 4, !tbaa !34
  %43 = icmp slt i32 %42, 128
  br i1 %43, label %44, label %61

44:                                               ; preds = %41
  %45 = load ptr, ptr %3, align 8, !tbaa !30
  %46 = getelementptr inbounds nuw %struct.ASFContext, ptr %45, i32 0, i32 2
  %47 = load i32, ptr %5, align 4, !tbaa !34
  %48 = sext i32 %47 to i64
  %49 = getelementptr inbounds [128 x %struct.ASFStream], ptr %46, i64 0, i64 %48
  store ptr %49, ptr %4, align 8, !tbaa !108
  %50 = load ptr, ptr %4, align 8, !tbaa !108
  %51 = getelementptr inbounds nuw %struct.ASFStream, ptr %50, i32 0, i32 2
  call void @av_packet_unref(ptr noundef %51)
  %52 = load ptr, ptr %4, align 8, !tbaa !108
  %53 = getelementptr inbounds nuw %struct.ASFStream, ptr %52, i32 0, i32 4
  store i32 0, ptr %53, align 4, !tbaa !160
  %54 = load ptr, ptr %4, align 8, !tbaa !108
  %55 = getelementptr inbounds nuw %struct.ASFStream, ptr %54, i32 0, i32 3
  store i32 0, ptr %55, align 8, !tbaa !156
  %56 = load ptr, ptr %4, align 8, !tbaa !108
  %57 = getelementptr inbounds nuw %struct.ASFStream, ptr %56, i32 0, i32 1
  store i8 0, ptr %57, align 4, !tbaa !165
  br label %58

58:                                               ; preds = %44
  %59 = load i32, ptr %5, align 4, !tbaa !34
  %60 = add nsw i32 %59, 1
  store i32 %60, ptr %5, align 4, !tbaa !34
  br label %41, !llvm.loop !196

61:                                               ; preds = %41
  %62 = load ptr, ptr %3, align 8, !tbaa !30
  %63 = getelementptr inbounds nuw %struct.ASFContext, ptr %62, i32 0, i32 30
  store ptr null, ptr %63, align 8, !tbaa !154
  call void @llvm.lifetime.end.p0(i64 4, ptr %5) #11
  call void @llvm.lifetime.end.p0(i64 8, ptr %4) #11
  call void @llvm.lifetime.end.p0(i64 8, ptr %3) #11
  ret void
}

; Function Attrs: nounwind uwtable
define internal i32 @asf_read_close(ptr noundef %0) #0 {
  %2 = alloca ptr, align 8
  store ptr %0, ptr %2, align 8, !tbaa !13
  %3 = load ptr, ptr %2, align 8, !tbaa !13
  call void @asf_reset_header(ptr noundef %3)
  ret i32 0
}