; Function Attrs: nounwind uwtable
define internal noundef i32 @asf_read_close(ptr noundef readonly captures(none) %0) #1 {
  %2 = getelementptr i8, ptr %0, i64 24
  %.val = load ptr, ptr %2, align 8, !tbaa !11
  %3 = getelementptr inbounds nuw i8, ptr %.val, i64 161544
  store i32 0, ptr %3, align 8, !tbaa !106
  %4 = getelementptr inbounds nuw i8, ptr %.val, i64 161656
  %5 = getelementptr inbounds nuw i8, ptr %.val, i64 161704
  store i64 0, ptr %5, align 8, !tbaa !125
  %6 = getelementptr inbounds nuw i8, ptr %.val, i64 161716
  store i32 0, ptr %6, align 4, !tbaa !133
  %7 = getelementptr inbounds nuw i8, ptr %.val, i64 161720
  store i32 0, ptr %7, align 8, !tbaa !129
  %8 = getelementptr inbounds nuw i8, ptr %.val, i64 161728
  store i64 0, ptr %8, align 8, !tbaa !115
  %9 = getelementptr inbounds nuw i8, ptr %.val, i64 520
  tail call void @llvm.memset.p0.i64(ptr noundef nonnull align 8 dereferenceable(44) %4, i8 0, i64 44, i1 false)
  br label %10

10:                                               ; preds = %10, %1
  %indvars.iv.i = phi i64 [ 0, %1 ], [ %indvars.iv.next.i, %10 ]
  %11 = getelementptr inbounds nuw [128 x %struct.ASFStream], ptr %9, i64 0, i64 %indvars.iv.i
  %12 = getelementptr inbounds nuw i8, ptr %11, i64 8
  tail call void @av_packet_unref(ptr noundef nonnull %12) #14
  %13 = getelementptr inbounds nuw i8, ptr %11, i64 116
  store i32 0, ptr %13, align 4, !tbaa !124
  %14 = getelementptr inbounds nuw i8, ptr %11, i64 112
  store i32 0, ptr %14, align 8, !tbaa !137
  %15 = getelementptr inbounds nuw i8, ptr %11, i64 4
  store i8 0, ptr %15, align 4, !tbaa !140
  %indvars.iv.next.i = add nuw nsw i64 %indvars.iv.i, 1
  %exitcond.not.i = icmp eq i64 %indvars.iv.next.i, 128
  br i1 %exitcond.not.i, label %asf_reset_header.exit, label %10, !llvm.loop !166

asf_reset_header.exit:                            ; preds = %10
  %16 = getelementptr inbounds nuw i8, ptr %.val, i64 161752
  store ptr null, ptr %16, align 8, !tbaa !136
  ret i32 0
}